target datalayout = "e-m:e-p270:32:32-p271:32:32-p272:64:64-i64:64-i128:128-f80:128-n8:16:32:64-S128"
target triple = "x86_64-pc-linux-gnu"

@.str.1 = private unnamed_addr constant [2 x i8] c"\0A\00", align 1
@.str.15 = private unnamed_addr constant [3 x i8] c"%d\00", align 1

; Function Attrs: nounwind uwtable
define void @Ifd_ManDsdPermPrint(ptr noundef %0, i32 noundef %1) #0 {
  %3 = alloca ptr, align 8
  %4 = alloca i32, align 4
  %5 = alloca i32, align 4
  store ptr %0, ptr %3, align 8, !tbaa !51
  store i32 %1, ptr %4, align 4, !tbaa !24
  call void @llvm.lifetime.start.p0(i64 4, ptr %5) #12
  store i32 0, ptr %5, align 4, !tbaa !24
  br label %6

6:                                                ; preds = %17, %2
  %7 = load i32, ptr %5, align 4, !tbaa !24
  %8 = load i32, ptr %4, align 4, !tbaa !24
  %9 = icmp slt i32 %7, %8
  br i1 %9, label %10, label %20

10:                                               ; preds = %6
  %11 = load ptr, ptr %3, align 8, !tbaa !51
  %12 = load i32, ptr %5, align 4, !tbaa !24
  %13 = sext i32 %12 to i64
  %14 = getelementptr inbounds i32, ptr %11, i64 %13
  %15 = load i32, ptr %14, align 4, !tbaa !24
  %16 = call i32 (ptr, ...) @printf(ptr noundef @.str.15, i32 noundef %15)
  br label %17

17:                                               ; preds = %10
  %18 = load i32, ptr %5, align 4, !tbaa !24
  %19 = add nsw i32 %18, 1
  store i32 %19, ptr %5, align 4, !tbaa !24
  br label %6, !llvm.loop !98

20:                                               ; preds = %6
  %21 = call i32 (ptr, ...) @printf(ptr noundef @.str.1)
  call void @llvm.lifetime.end.p0(i64 4, ptr %5) #12
  ret void
}